target datalayout = "e-m:e-p270:32:32-p271:32:32-p272:64:64-i64:64-i128:128-f80:128-n8:16:32:64-S128"
target triple = "x86_64-pc-linux-gnu"

%struct.ossl_ml_kem_key_st = type { ptr, ptr, ptr, ptr, ptr, ptr, ptr, ptr, ptr, ptr, ptr, ptr, ptr, i32, i32, [64 x i8], ptr }

@.str = private unnamed_addr constant [19 x i8] c"ml-kem.retain_seed\00", align 1
@.str.1 = private unnamed_addr constant [19 x i8] c"ml-kem.prefer_seed\00", align 1

; Function Attrs: nounwind uwtable
define internal ptr @ml_kem_new(ptr noundef %0, ptr noundef %1, i32 noundef %2) #0 {
  %4 = alloca ptr, align 8
  %5 = alloca ptr, align 8
  %6 = alloca ptr, align 8
  %7 = alloca i32, align 4
  %8 = alloca ptr, align 8
  %9 = alloca i32, align 4
  store ptr %0, ptr %5, align 8, !tbaa !52
  store ptr %1, ptr %6, align 8, !tbaa !24
  store i32 %2, ptr %7, align 4, !tbaa !25
  call void @llvm.lifetime.start.p0(i64 8, ptr %8) #7
  %10 = call i32 @ossl_prov_is_running()
  %11 = icmp ne i32 %10, 0
  br i1 %11, label %13, label %12

12:                                               ; preds = %3
  store ptr null, ptr %4, align 8
  store i32 1, ptr %9, align 4
  br label %31

13:                                               ; preds = %3
  %14 = load ptr, ptr %5, align 8, !tbaa !52
  %15 = call ptr @ossl_prov_ctx_get0_libctx(ptr noundef %14)
  %16 = load ptr, ptr %6, align 8, !tbaa !24
  %17 = load i32, ptr %7, align 4, !tbaa !25
  %18 = call ptr @ossl_ml_kem_key_new(ptr noundef %15, ptr noundef %16, i32 noundef %17)
  store ptr %18, ptr %8, align 8, !tbaa !9
  %19 = icmp ne ptr %18, null
  br i1 %19, label %20, label %29

20:                                               ; preds = %13
  %21 = load ptr, ptr %5, align 8, !tbaa !52
  %22 = call i32 @ossl_prov_ctx_get_bool_param(ptr noundef %21, ptr noundef @.str, i32 noundef 1)
  %23 = load ptr, ptr %8, align 8, !tbaa !9
  %24 = getelementptr inbounds nuw %struct.ossl_ml_kem_key_st, ptr %23, i32 0, i32 14
  store i32 %22, ptr %24, align 4, !tbaa !53
  %25 = load ptr, ptr %5, align 8, !tbaa !52
  %26 = call i32 @ossl_prov_ctx_get_bool_param(ptr noundef %25, ptr noundef @.str.1, i32 noundef 1)
  %27 = load ptr, ptr %8, align 8, !tbaa !9
  %28 = getelementptr inbounds nuw %struct.ossl_ml_kem_key_st, ptr %27, i32 0, i32 13
  store i32 %26, ptr %28, align 8, !tbaa !49
  br label %29

29:                                               ; preds = %20, %13
  %30 = load ptr, ptr %8, align 8, !tbaa !9
  store ptr %30, ptr %4, align 8
  store i32 1, ptr %9, align 4
  br label %31

31:                                               ; preds = %29, %12
  call void @llvm.lifetime.end.p0(i64 8, ptr %8) #7
  %32 = load ptr, ptr %4, align 8
  ret ptr %32
}

; Function Attrs: nounwind uwtable
define internal ptr @ml_kem_512_new(ptr noundef %0) #0 {
  %2 = alloca ptr, align 8
  store ptr %0, ptr %2, align 8, !tbaa !3
  %3 = load ptr, ptr %2, align 8, !tbaa !3
  %4 = call ptr @ml_kem_new(ptr noundef %3, ptr noundef null, i32 noundef 1454)
  ret ptr %4
}